target datalayout = "e-m:e-p270:32:32-p271:32:32-p272:64:64-i64:64-i128:128-f80:128-n8:16:32:64-S128"
target triple = "x86_64-pc-linux-gnu"

%struct.jit_State = type { %struct.GCtrace, ptr, ptr, ptr, ptr, ptr, ptr, i32, i32, i32, i8, i8, %struct.IRType1, i8, %struct.FoldState, ptr, i32, i32, i32, i32, i32, i32, i32, [1 x i32], [5 x %union.TValue], [3 x %union.TValue], ptr, i32, i32, i32, i32, ptr, ptr, i32, i32, i8, ptr, i32, i32, i16, [101 x i16], [258 x i32], [15 x i32], [16 x ptr], [64 x %struct.HotPenalty], i32, [16 x %struct.BPropEntry], i32, %struct.ScEvEntry, ptr, i32, i32, i32, ptr, i32, i32, ptr, ptr, ptr, i64, i64, %union.TValue, ptr, i32, i32 }
%struct.GCtrace = type { %struct.GCRef, i8, i8, i16, i32, i32, %struct.GCRef, ptr, i32, i32, ptr, ptr, %struct.GCRef, %struct.MRef, i32, i32, ptr, i32, i16, i16, i16, i16, i16, i16, i16, i8, i8, i8, i8 }
%struct.GCRef = type { i64 }
%struct.MRef = type { i64 }
%struct.IRType1 = type { i8 }
%struct.FoldState = type { %union.IRIns, [2 x %union.IRIns], [2 x %union.IRIns] }
%union.IRIns = type { %struct.GCRef }
%struct.HotPenalty = type { %struct.MRef, i16, i16 }
%struct.BPropEntry = type { i16, i16, i32 }
%struct.ScEvEntry = type { %struct.MRef, i16, i16, i16, i16, %struct.IRType1, i8 }
%union.TValue = type { i64 }
%struct.anon.0 = type { i32, %struct.IRType1, i8, i8, i8 }
%struct.anon = type { i16, i16, i16, i16 }

; Function Attrs: alwaysinline nounwind uwtable
define internal i32 @ir_nextk64(ptr noundef %0) #5 {
  %2 = alloca ptr, align 8
  %3 = alloca i32, align 4
  store ptr %0, ptr %2, align 8, !tbaa !4
  call void @llvm.lifetime.start.p0(i64 4, ptr %3) #10
  %4 = load ptr, ptr %2, align 8, !tbaa !4
  %5 = getelementptr inbounds nuw %struct.jit_State, ptr %4, i32 0, i32 0
  %6 = getelementptr inbounds nuw %struct.GCtrace, ptr %5, i32 0, i32 8
  %7 = load i32, ptr %6, align 8, !tbaa !50
  %8 = sub i32 %7, 2
  store i32 %8, ptr %3, align 4, !tbaa !32
  %9 = load i32, ptr %3, align 4, !tbaa !32
  %10 = load ptr, ptr %2, align 8, !tbaa !4
  %11 = getelementptr inbounds nuw %struct.jit_State, ptr %10, i32 0, i32 28
  %12 = load i32, ptr %11, align 4, !tbaa !29
  %13 = icmp ult i32 %9, %12
  %14 = xor i1 %13, true
  %15 = xor i1 %14, true
  %16 = zext i1 %15 to i32
  %17 = sext i32 %16 to i64
  %18 = call i64 @llvm.expect.i64(i64 %17, i64 0)
  %19 = icmp ne i64 %18, 0
  br i1 %19, label %20, label %22

20:                                               ; preds = %1
  %21 = load ptr, ptr %2, align 8, !tbaa !4
  call void @lj_ir_growbot(ptr noundef %21)
  br label %22

22:                                               ; preds = %20, %1
  %23 = load i32, ptr %3, align 4, !tbaa !32
  %24 = load ptr, ptr %2, align 8, !tbaa !4
  %25 = getelementptr inbounds nuw %struct.jit_State, ptr %24, i32 0, i32 0
  %26 = getelementptr inbounds nuw %struct.GCtrace, ptr %25, i32 0, i32 8
  store i32 %23, ptr %26, align 8, !tbaa !50
  %27 = load i32, ptr %3, align 4, !tbaa !32
  call void @llvm.lifetime.end.p0(i64 4, ptr %3) #10
  ret i32 %27
}

; Function Attrs: nounwind uwtable
define hidden i32 @lj_ir_kgc(ptr noundef %0, ptr noundef %1, i32 noundef %2) #3 {
  %4 = alloca ptr, align 8
  %5 = alloca ptr, align 8
  %6 = alloca i32, align 4
  %7 = alloca ptr, align 8
  %8 = alloca ptr, align 8
  %9 = alloca i32, align 4
  store ptr %0, ptr %4, align 8, !tbaa !4
  store ptr %1, ptr %5, align 8, !tbaa !55
  store i32 %2, ptr %6, align 4, !tbaa !32
  call void @llvm.lifetime.start.p0(i64 8, ptr %7) #10
  call void @llvm.lifetime.start.p0(i64 8, ptr %8) #10
  %10 = load ptr, ptr %4, align 8, !tbaa !4
  %11 = getelementptr inbounds nuw %struct.jit_State, ptr %10, i32 0, i32 0
  %12 = getelementptr inbounds nuw %struct.GCtrace, ptr %11, i32 0, i32 7
  %13 = load ptr, ptr %12, align 8, !tbaa !34
  store ptr %13, ptr %8, align 8, !tbaa !30
  call void @llvm.lifetime.start.p0(i64 4, ptr %9) #10
  %14 = load ptr, ptr %4, align 8, !tbaa !4
  %15 = getelementptr inbounds nuw %struct.jit_State, ptr %14, i32 0, i32 40
  %16 = getelementptr inbounds [101 x i16], ptr %15, i64 0, i64 24
  %17 = load i16, ptr %16, align 2, !tbaa !36
  %18 = zext i16 %17 to i32
  store i32 %18, ptr %9, align 4, !tbaa !32
  br label %19

19:                                               ; preds = %35, %3
  %20 = load i32, ptr %9, align 4, !tbaa !32
  %21 = icmp ne i32 %20, 0
  br i1 %21, label %22, label %43

22:                                               ; preds = %19
  %23 = load ptr, ptr %8, align 8, !tbaa !30
  %24 = load i32, ptr %9, align 4, !tbaa !32
  %25 = zext i32 %24 to i64
  %26 = getelementptr inbounds nuw %union.IRIns, ptr %23, i64 %25
  %27 = getelementptr inbounds %union.IRIns, ptr %26, i64 1
  %28 = getelementptr inbounds nuw %struct.GCRef, ptr %27, i32 0, i32 0
  %29 = load i64, ptr %28, align 8, !tbaa !35
  %30 = inttoptr i64 %29 to ptr
  %31 = load ptr, ptr %5, align 8, !tbaa !55
  %32 = icmp eq ptr %30, %31
  br i1 %32, label %33, label %34

33:                                               ; preds = %22
  br label %78

34:                                               ; preds = %22
  br label %35

35:                                               ; preds = %34
  %36 = load ptr, ptr %8, align 8, !tbaa !30
  %37 = load i32, ptr %9, align 4, !tbaa !32
  %38 = zext i32 %37 to i64
  %39 = getelementptr inbounds nuw %union.IRIns, ptr %36, i64 %38
  %40 = getelementptr inbounds nuw %struct.anon, ptr %39, i32 0, i32 3
  %41 = load i16, ptr %40, align 2, !tbaa !35
  %42 = zext i16 %41 to i32
  store i32 %42, ptr %9, align 4, !tbaa !32
  br label %19, !llvm.loop !57

43:                                               ; preds = %19
  %44 = load ptr, ptr %4, align 8, !tbaa !4
  %45 = call i32 @ir_nextk64(ptr noundef %44)
  store i32 %45, ptr %9, align 4, !tbaa !32
  %46 = load ptr, ptr %4, align 8, !tbaa !4
  %47 = getelementptr inbounds nuw %struct.jit_State, ptr %46, i32 0, i32 0
  %48 = getelementptr inbounds nuw %struct.GCtrace, ptr %47, i32 0, i32 7
  %49 = load ptr, ptr %48, align 8, !tbaa !34
  %50 = load i32, ptr %9, align 4, !tbaa !32
  %51 = zext i32 %50 to i64
  %52 = getelementptr inbounds nuw %union.IRIns, ptr %49, i64 %51
  store ptr %52, ptr %7, align 8, !tbaa !30
  %53 = load ptr, ptr %7, align 8, !tbaa !30
  %54 = getelementptr inbounds nuw %struct.anon.0, ptr %53, i32 0, i32 0
  store i32 0, ptr %54, align 8, !tbaa !35
  %55 = load ptr, ptr %5, align 8, !tbaa !55
  %56 = ptrtoint ptr %55 to i64
  %57 = load ptr, ptr %7, align 8, !tbaa !30
  %58 = getelementptr inbounds %union.IRIns, ptr %57, i64 1
  %59 = getelementptr inbounds nuw %struct.GCRef, ptr %58, i32 0, i32 0
  store i64 %56, ptr %59, align 8, !tbaa !35
  %60 = load i32, ptr %6, align 4, !tbaa !32
  %61 = trunc i32 %60 to i8
  %62 = load ptr, ptr %7, align 8, !tbaa !30
  %63 = getelementptr inbounds nuw %struct.anon.0, ptr %62, i32 0, i32 1
  %64 = getelementptr inbounds nuw %struct.IRType1, ptr %63, i32 0, i32 0
  store i8 %61, ptr %64, align 4, !tbaa !35
  %65 = load ptr, ptr %7, align 8, !tbaa !30
  %66 = getelementptr inbounds nuw %struct.anon.0, ptr %65, i32 0, i32 2
  store i8 24, ptr %66, align 1, !tbaa !35
  %67 = load ptr, ptr %4, align 8, !tbaa !4
  %68 = getelementptr inbounds nuw %struct.jit_State, ptr %67, i32 0, i32 40
  %69 = getelementptr inbounds [101 x i16], ptr %68, i64 0, i64 24
  %70 = load i16, ptr %69, align 2, !tbaa !36
  %71 = load ptr, ptr %7, align 8, !tbaa !30
  %72 = getelementptr inbounds nuw %struct.anon, ptr %71, i32 0, i32 3
  store i16 %70, ptr %72, align 2, !tbaa !35
  %73 = load i32, ptr %9, align 4, !tbaa !32
  %74 = trunc i32 %73 to i16
  %75 = load ptr, ptr %4, align 8, !tbaa !4
  %76 = getelementptr inbounds nuw %struct.jit_State, ptr %75, i32 0, i32 40
  %77 = getelementptr inbounds [101 x i16], ptr %76, i64 0, i64 24
  store i16 %74, ptr %77, align 2, !tbaa !36
  br label %78

78:                                               ; preds = %43, %33
  %79 = load i32, ptr %9, align 4, !tbaa !32
  %80 = load i32, ptr %6, align 4, !tbaa !32
  %81 = shl i32 %80, 24
  %82 = add i32 %79, %81
  call void @llvm.lifetime.end.p0(i64 4, ptr %9) #10
  call void @llvm.lifetime.end.p0(i64 8, ptr %8) #10
  call void @llvm.lifetime.end.p0(i64 8, ptr %7) #10
  ret i32 %82
}