; Function Attrs: nounwind uwtable
define hidden i32 @lj_ir_kgc(ptr noundef captures(none) %0, ptr noundef %1, i32 noundef %2) local_unnamed_addr #6 {
  %4 = getelementptr inbounds nuw i8, ptr %0, i64 32
  %5 = load ptr, ptr %4, align 8, !tbaa !30
  %6 = getelementptr inbounds nuw i8, ptr %0, i64 450
  %.0.in22 = load i16, ptr %6, align 2, !tbaa !33
  %.not23 = icmp eq i16 %.0.in22, 0
  br i1 %.not23, label %._crit_edge, label %.lr.ph

7:                                                ; preds = %.lr.ph
  %8 = getelementptr inbounds nuw i8, ptr %10, i64 6
  %.0.in = load i16, ptr %8, align 2, !tbaa !33
  %.not = icmp eq i16 %.0.in, 0
  br i1 %.not, label %._crit_edge, label %.lr.ph, !llvm.loop !46

.lr.ph:                                           ; preds = %3, %7
  %.0.in24 = phi i16 [ %.0.in, %7 ], [ %.0.in22, %3 ]
  %9 = zext i16 %.0.in24 to i64
  %10 = getelementptr inbounds nuw %union.IRIns, ptr %5, i64 %9
  %11 = getelementptr inbounds nuw i8, ptr %10, i64 8
  %12 = load i64, ptr %11, align 8, !tbaa !33
  %13 = inttoptr i64 %12 to ptr
  %14 = icmp eq ptr %1, %13
  br i1 %14, label %.loopexit, label %7

._crit_edge:                                      ; preds = %7, %3
  %15 = getelementptr inbounds nuw i8, ptr %0, i64 40
  %16 = load i32, ptr %15, align 8, !tbaa !43
  %17 = add i32 %16, -2
  %18 = getelementptr inbounds nuw i8, ptr %0, i64 340
  %19 = load i32, ptr %18, align 4, !tbaa !4
  %20 = icmp ult i32 %17, %19
  br i1 %20, label %21, label %ir_nextk64.exit, !prof !45

21:                                               ; preds = %._crit_edge
  tail call fastcc void @lj_ir_growbot(ptr noundef nonnull %0)
  %.pre = load ptr, ptr %4, align 8, !tbaa !30
  br label %ir_nextk64.exit

ir_nextk64.exit:                                  ; preds = %._crit_edge, %21
  %22 = phi ptr [ %5, %._crit_edge ], [ %.pre, %21 ]
  store i32 %17, ptr %15, align 8, !tbaa !43
  %23 = zext i32 %17 to i64
  %24 = getelementptr inbounds nuw %union.IRIns, ptr %22, i64 %23
  store i32 0, ptr %24, align 8, !tbaa !33
  %25 = ptrtoint ptr %1 to i64
  %26 = getelementptr inbounds nuw i8, ptr %24, i64 8
  store i64 %25, ptr %26, align 8, !tbaa !33
  %27 = trunc i32 %2 to i8
  %28 = getelementptr inbounds nuw i8, ptr %24, i64 4
  store i8 %27, ptr %28, align 4, !tbaa !33
  %29 = getelementptr inbounds nuw i8, ptr %24, i64 5
  store i8 24, ptr %29, align 1, !tbaa !33
  %30 = load i16, ptr %6, align 2, !tbaa !34
  %31 = getelementptr inbounds nuw i8, ptr %24, i64 6
  store i16 %30, ptr %31, align 2, !tbaa !33
  %32 = trunc i32 %17 to i16
  store i16 %32, ptr %6, align 2, !tbaa !34
  br label %33

.loopexit:                                        ; preds = %.lr.ph
  %.0.le = zext i16 %.0.in24 to i32
  br label %33

33:                                               ; preds = %.loopexit, %ir_nextk64.exit
  %.1 = phi i32 [ %17, %ir_nextk64.exit ], [ %.0.le, %.loopexit ]
  %34 = shl i32 %2, 24
  %35 = add i32 %.1, %34
  ret i32 %35
}